target datalayout = "e-m:e-p270:32:32-p271:32:32-p272:64:64-i64:64-i128:128-f80:128-n8:16:32:64-S128"
target triple = "x86_64-unknown-linux-gnu"

%"class.std::__cxx11::basic_string" = type { %"struct.std::__cxx11::basic_string<char>::_Alloc_hider", i64, %union.anon }
%"struct.std::__cxx11::basic_string<char>::_Alloc_hider" = type { ptr }
%union.anon = type { i64, [8 x i8] }
%"class.google::protobuf::compiler::DiskSourceTree" = type { %"class.google::protobuf::compiler::SourceTree", %"class.std::vector.70", %"class.std::__cxx11::basic_string" }
%"class.google::protobuf::compiler::SourceTree" = type { ptr }
%"class.std::vector.70" = type { %"struct.std::_Vector_base.71" }
%"struct.std::_Vector_base.71" = type { %"struct.std::_Vector_base<google::protobuf::compiler::DiskSourceTree::Mapping, std::allocator<google::protobuf::compiler::DiskSourceTree::Mapping>>::_Vector_impl" }
%"struct.std::_Vector_base<google::protobuf::compiler::DiskSourceTree::Mapping, std::allocator<google::protobuf::compiler::DiskSourceTree::Mapping>>::_Vector_impl" = type { %"struct.std::_Vector_base<google::protobuf::compiler::DiskSourceTree::Mapping, std::allocator<google::protobuf::compiler::DiskSourceTree::Mapping>>::_Vector_impl_data" }
%"struct.std::_Vector_base<google::protobuf::compiler::DiskSourceTree::Mapping, std::allocator<google::protobuf::compiler::DiskSourceTree::Mapping>>::_Vector_impl_data" = type { ptr, ptr, ptr }

; Function Attrs: mustprogress nounwind uwtable
define linkonce_odr hidden void @_ZNSt15__new_allocatorIN6google8protobuf8compiler14DiskSourceTree7MappingEEC2Ev(ptr noundef nonnull align 1 dereferenceable(1) %this) unnamed_addr #4 comdat align 2 {
entry:
  %this.addr = alloca ptr, align 8
  store ptr %this, ptr %this.addr, align 8
  ret void
}

; Function Attrs: mustprogress nounwind uwtable
define linkonce_odr hidden void @_ZNSt12_Vector_baseIN6google8protobuf8compiler14DiskSourceTree7MappingESaIS4_EE17_Vector_impl_dataC2Ev(ptr noundef nonnull align 8 dereferenceable(24) %this) unnamed_addr #4 comdat align 2 {
entry:
  %this.addr = alloca ptr, align 8
  store ptr %this, ptr %this.addr, align 8
  %this1 = load ptr, ptr %this.addr, align 8
  %_M_start = getelementptr inbounds %"struct.std::_Vector_base<google::protobuf::compiler::DiskSourceTree::Mapping, std::allocator<google::protobuf::compiler::DiskSourceTree::Mapping>>::_Vector_impl_data", ptr %this1, i32 0, i32 0
  store ptr null, ptr %_M_start, align 8
  %_M_finish = getelementptr inbounds %"struct.std::_Vector_base<google::protobuf::compiler::DiskSourceTree::Mapping, std::allocator<google::protobuf::compiler::DiskSourceTree::Mapping>>::_Vector_impl_data", ptr %this1, i32 0, i32 1
  store ptr null, ptr %_M_finish, align 8
  %_M_end_of_storage = getelementptr inbounds %"struct.std::_Vector_base<google::protobuf::compiler::DiskSourceTree::Mapping, std::allocator<google::protobuf::compiler::DiskSourceTree::Mapping>>::_Vector_impl_data", ptr %this1, i32 0, i32 2
  store ptr null, ptr %_M_end_of_storage, align 8
  ret void
}

; Function Attrs: mustprogress nounwind uwtable
define linkonce_odr hidden void @_ZNSaIN6google8protobuf8compiler14DiskSourceTree7MappingEEC2Ev(ptr noundef nonnull align 1 dereferenceable(1) %this) unnamed_addr #4 comdat align 2 {
entry:
  %this.addr = alloca ptr, align 8
  store ptr %this, ptr %this.addr, align 8
  %this1 = load ptr, ptr %this.addr, align 8
  call void @_ZNSt15__new_allocatorIN6google8protobuf8compiler14DiskSourceTree7MappingEEC2Ev(ptr noundef nonnull align 1 dereferenceable(1) %this1) #3
  ret void
}

; Function Attrs: mustprogress nounwind uwtable
define linkonce_odr hidden void @_ZNSt12_Vector_baseIN6google8protobuf8compiler14DiskSourceTree7MappingESaIS4_EE12_Vector_implC2Ev(ptr noundef nonnull align 8 dereferenceable(24) %this) unnamed_addr #4 comdat align 2 {
entry:
  %this.addr = alloca ptr, align 8
  store ptr %this, ptr %this.addr, align 8
  %this1 = load ptr, ptr %this.addr, align 8
  call void @_ZNSaIN6google8protobuf8compiler14DiskSourceTree7MappingEEC2Ev(ptr noundef nonnull align 1 dereferenceable(1) %this1) #3
  call void @_ZNSt12_Vector_baseIN6google8protobuf8compiler14DiskSourceTree7MappingESaIS4_EE17_Vector_impl_dataC2Ev(ptr noundef nonnull align 8 dereferenceable(24) %this1) #3
  ret void
}

; Function Attrs: mustprogress nounwind uwtable
define linkonce_odr hidden void @_ZNSt12_Vector_baseIN6google8protobuf8compiler14DiskSourceTree7MappingESaIS4_EEC2Ev(ptr noundef nonnull align 8 dereferenceable(24) %this) unnamed_addr #4 comdat align 2 {
entry:
  %this.addr = alloca ptr, align 8
  store ptr %this, ptr %this.addr, align 8
  %this1 = load ptr, ptr %this.addr, align 8
  %_M_impl = getelementptr inbounds %"struct.std::_Vector_base.71", ptr %this1, i32 0, i32 0
  call void @_ZNSt12_Vector_baseIN6google8protobuf8compiler14DiskSourceTree7MappingESaIS4_EE12_Vector_implC2Ev(ptr noundef nonnull align 8 dereferenceable(24) %_M_impl) #3
  ret void
}

; Function Attrs: mustprogress nounwind uwtable
define linkonce_odr hidden void @_ZNSt6vectorIN6google8protobuf8compiler14DiskSourceTree7MappingESaIS4_EEC2Ev(ptr noundef nonnull align 8 dereferenceable(24) %this) unnamed_addr #4 comdat align 2 {
entry:
  %this.addr = alloca ptr, align 8
  store ptr %this, ptr %this.addr, align 8
  %this1 = load ptr, ptr %this.addr, align 8
  call void @_ZNSt12_Vector_baseIN6google8protobuf8compiler14DiskSourceTree7MappingESaIS4_EEC2Ev(ptr noundef nonnull align 8 dereferenceable(24) %this1) #3
  ret void
}

; Function Attrs: mustprogress nounwind uwtable
define linkonce_odr hidden void @_ZN6google8protobuf8compiler10SourceTreeC2Ev(ptr noundef nonnull align 8 dereferenceable(8) %this) unnamed_addr #4 comdat align 2 {
entry:
  %this.addr = alloca ptr, align 8
  store ptr %this, ptr %this.addr, align 8
  %this1 = load ptr, ptr %this.addr, align 8
  store ptr getelementptr inbounds ({ [6 x ptr] }, ptr @_ZTVN6google8protobuf8compiler10SourceTreeE, i32 0, i32 0, i32 2), ptr %this1, align 8
  ret void
}

; Function Attrs: mustprogress uwtable
define void @_ZN6google8protobuf8compiler14DiskSourceTreeC2Ev(ptr noundef nonnull align 8 dereferenceable(64) %this) unnamed_addr #6 align 2 {
entry:
  %this.addr = alloca ptr, align 8
  store ptr %this, ptr %this.addr, align 8
  %this1 = load ptr, ptr %this.addr, align 8
  call void @_ZN6google8protobuf8compiler10SourceTreeC2Ev(ptr noundef nonnull align 8 dereferenceable(8) %this1)
  store ptr getelementptr inbounds ({ [6 x ptr] }, ptr @_ZTVN6google8protobuf8compiler14DiskSourceTreeE, i32 0, i32 0, i32 2), ptr %this1, align 8
  %mappings_ = getelementptr inbounds %"class.google::protobuf::compiler::DiskSourceTree", ptr %this1, i32 0, i32 1
  call void @_ZNSt6vectorIN6google8protobuf8compiler14DiskSourceTree7MappingESaIS4_EEC2Ev(ptr noundef nonnull align 8 dereferenceable(24) %mappings_) #3
  %last_error_message_ = getelementptr inbounds %"class.google::protobuf::compiler::DiskSourceTree", ptr %this1, i32 0, i32 2
  call void @_ZNSt7__cxx1112basic_stringIcSt11char_traitsIcESaIcEEC1Ev(ptr noundef nonnull align 8 dereferenceable(32) %last_error_message_) #3
  ret void
}