; Function Attrs: mustprogress nounwind uwtable
define void @_ZN6google8protobuf8compiler14DiskSourceTreeC2Ev(ptr noundef nonnull align 8 dereferenceable(64) %this) unnamed_addr #7 align 2 {
entry:
  store ptr getelementptr inbounds ({ [6 x ptr] }, ptr @_ZTVN6google8protobuf8compiler14DiskSourceTreeE, i64 0, i32 0, i64 2), ptr %this, align 8
  %mappings_ = getelementptr inbounds i8, ptr %this, i64 8
  tail call void @llvm.memset.p0.i64(ptr noundef nonnull align 8 dereferenceable(24) %mappings_, i8 0, i64 24, i1 false)
  %last_error_message_ = getelementptr inbounds i8, ptr %this, i64 32
  tail call void @_ZNSt7__cxx1112basic_stringIcSt11char_traitsIcESaIcEEC1Ev(ptr noundef nonnull align 8 dereferenceable(32) %last_error_message_) #25
  ret void
}